target datalayout = "e-m:e-p270:32:32-p271:32:32-p272:64:64-i64:64-i128:128-f80:128-n8:16:32:64-S128"
target triple = "x86_64-pc-linux-gnu"

%struct.ident_t = type { i32, i32, i32, i32, ptr }

@1 = private unnamed_addr constant %struct.ident_t { i32 0, i32 514, i32 0, i32 22, ptr @0 }, align 8
@2 = private unnamed_addr constant %struct.ident_t { i32 0, i32 66, i32 0, i32 22, ptr @0 }, align 8

; Function Attrs: inlinehint nounwind uwtable
define internal i64 @insertZeroBit(i64 noundef %0, i32 noundef %1) #7 {
  %3 = alloca i64, align 8
  %4 = alloca i32, align 4
  %5 = alloca i64, align 8
  %6 = alloca i64, align 8
  store i64 %0, ptr %3, align 8, !tbaa !4
  store i32 %1, ptr %4, align 4, !tbaa !8
  call void @llvm.lifetime.start.p0(i64 8, ptr %5) #3
  call void @llvm.lifetime.start.p0(i64 8, ptr %6) #3
  %7 = load i64, ptr %3, align 8, !tbaa !4
  %8 = load i32, ptr %4, align 4, !tbaa !8
  %9 = zext i32 %8 to i64
  %10 = ashr i64 %7, %9
  %11 = load i32, ptr %4, align 4, !tbaa !8
  %12 = zext i32 %11 to i64
  %13 = shl i64 %10, %12
  store i64 %13, ptr %5, align 8, !tbaa !4
  %14 = load i64, ptr %3, align 8, !tbaa !4
  %15 = load i64, ptr %5, align 8, !tbaa !4
  %16 = sub nsw i64 %14, %15
  store i64 %16, ptr %6, align 8, !tbaa !4
  %17 = load i64, ptr %5, align 8, !tbaa !4
  %18 = shl i64 %17, 1
  %19 = load i64, ptr %6, align 8, !tbaa !4
  %20 = xor i64 %18, %19
  call void @llvm.lifetime.end.p0(i64 8, ptr %6) #3
  call void @llvm.lifetime.end.p0(i64 8, ptr %5) #3
  ret i64 %20
}

; Function Attrs: inlinehint nounwind uwtable
define internal i64 @flipBit(i64 noundef %0, i32 noundef %1) #7 {
  %3 = alloca i64, align 8
  %4 = alloca i32, align 4
  store i64 %0, ptr %3, align 8, !tbaa !4
  store i32 %1, ptr %4, align 4, !tbaa !8
  %5 = load i64, ptr %3, align 8, !tbaa !4
  %6 = load i32, ptr %4, align 4, !tbaa !8
  %7 = zext i32 %6 to i64
  %8 = shl i64 1, %7
  %9 = xor i64 %5, %8
  ret i64 %9
}

; Function Attrs: inlinehint nounwind uwtable
define internal i64 @insertTwoZeroBits(i64 noundef %0, i32 noundef %1, i32 noundef %2) #7 {
  %4 = alloca i64, align 8
  %5 = alloca i32, align 4
  %6 = alloca i32, align 4
  %7 = alloca i32, align 4
  %8 = alloca i32, align 4
  store i64 %0, ptr %4, align 8, !tbaa !4
  store i32 %1, ptr %5, align 4, !tbaa !8
  store i32 %2, ptr %6, align 4, !tbaa !8
  call void @llvm.lifetime.start.p0(i64 4, ptr %7) #3
  %9 = load i32, ptr %5, align 4, !tbaa !8
  %10 = load i32, ptr %6, align 4, !tbaa !8
  %11 = icmp slt i32 %9, %10
  br i1 %11, label %12, label %14

12:                                               ; preds = %3
  %13 = load i32, ptr %5, align 4, !tbaa !8
  br label %16

14:                                               ; preds = %3
  %15 = load i32, ptr %6, align 4, !tbaa !8
  br label %16

16:                                               ; preds = %14, %12
  %17 = phi i32 [ %13, %12 ], [ %15, %14 ]
  store i32 %17, ptr %7, align 4, !tbaa !8
  call void @llvm.lifetime.start.p0(i64 4, ptr %8) #3
  %18 = load i32, ptr %5, align 4, !tbaa !8
  %19 = load i32, ptr %6, align 4, !tbaa !8
  %20 = icmp slt i32 %18, %19
  br i1 %20, label %21, label %23

21:                                               ; preds = %16
  %22 = load i32, ptr %6, align 4, !tbaa !8
  br label %25

23:                                               ; preds = %16
  %24 = load i32, ptr %5, align 4, !tbaa !8
  br label %25

25:                                               ; preds = %23, %21
  %26 = phi i32 [ %22, %21 ], [ %24, %23 ]
  store i32 %26, ptr %8, align 4, !tbaa !8
  %27 = load i64, ptr %4, align 8, !tbaa !4
  %28 = load i32, ptr %7, align 4, !tbaa !8
  %29 = call i64 @insertZeroBit(i64 noundef %27, i32 noundef %28)
  %30 = load i32, ptr %8, align 4, !tbaa !8
  %31 = call i64 @insertZeroBit(i64 noundef %29, i32 noundef %30)
  call void @llvm.lifetime.end.p0(i64 4, ptr %8) #3
  call void @llvm.lifetime.end.p0(i64 4, ptr %7) #3
  ret i64 %31
}

; Function Attrs: alwaysinline norecurse nounwind uwtable
define internal void @statevec_swapQubitAmpsLocal.omp_outlined(ptr noalias noundef %0, ptr noalias noundef %1, ptr noundef nonnull align 8 dereferenceable(8) %2, ptr noundef nonnull align 4 dereferenceable(4) %3, ptr noundef nonnull align 4 dereferenceable(4) %4, ptr noundef nonnull align 8 dereferenceable(8) %5, ptr noundef nonnull align 8 dereferenceable(8) %6) #2 {
  %8 = alloca ptr, align 8
  %9 = alloca ptr, align 8
  %10 = alloca ptr, align 8
  %11 = alloca ptr, align 8
  %12 = alloca ptr, align 8
  %13 = alloca ptr, align 8
  %14 = alloca ptr, align 8
  %15 = alloca i64, align 8
  %16 = alloca i64, align 8
  %17 = alloca i64, align 8
  %18 = alloca double, align 8
  %19 = alloca double, align 8
  %20 = alloca double, align 8
  %21 = alloca double, align 8
  %22 = alloca i64, align 8
  %23 = alloca i64, align 8
  %24 = alloca i64, align 8
  %25 = alloca i64, align 8
  %26 = alloca i64, align 8
  %27 = alloca i64, align 8
  %28 = alloca i64, align 8
  %29 = alloca i32, align 4
  %30 = alloca i64, align 8
  store ptr %0, ptr %8, align 8, !tbaa !19
  store ptr %1, ptr %9, align 8, !tbaa !19
  store ptr %2, ptr %10, align 8, !tbaa !21
  store ptr %3, ptr %11, align 8, !tbaa !19
  store ptr %4, ptr %12, align 8, !tbaa !19
  store ptr %5, ptr %13, align 8, !tbaa !33
  store ptr %6, ptr %14, align 8, !tbaa !33
  %31 = load ptr, ptr %10, align 8, !tbaa !21
  %32 = load ptr, ptr %11, align 8, !tbaa !19
  %33 = load ptr, ptr %12, align 8, !tbaa !19
  %34 = load ptr, ptr %13, align 8, !tbaa !33
  %35 = load ptr, ptr %14, align 8, !tbaa !33
  call void @llvm.lifetime.start.p0(i64 8, ptr %15) #3
  call void @llvm.lifetime.start.p0(i64 8, ptr %16) #3
  call void @llvm.lifetime.start.p0(i64 8, ptr %17) #3
  call void @llvm.lifetime.start.p0(i64 8, ptr %18) #3
  call void @llvm.lifetime.start.p0(i64 8, ptr %19) #3
  call void @llvm.lifetime.start.p0(i64 8, ptr %20) #3
  call void @llvm.lifetime.start.p0(i64 8, ptr %21) #3
  call void @llvm.lifetime.start.p0(i64 8, ptr %22) #3
  call void @llvm.lifetime.start.p0(i64 8, ptr %23) #3
  %36 = load i64, ptr %31, align 8, !tbaa !4
  store i64 %36, ptr %23, align 8, !tbaa !4
  call void @llvm.lifetime.start.p0(i64 8, ptr %24) #3
  %37 = load i64, ptr %23, align 8, !tbaa !4
  %38 = sub nsw i64 %37, 0
  %39 = sdiv i64 %38, 1
  %40 = sub nsw i64 %39, 1
  store i64 %40, ptr %24, align 8, !tbaa !4
  call void @llvm.lifetime.start.p0(i64 8, ptr %25) #3
  store i64 0, ptr %25, align 8, !tbaa !4
  call void @llvm.lifetime.end.p0(i64 8, ptr %25) #3
  %41 = load i64, ptr %23, align 8, !tbaa !4
  %42 = icmp slt i64 0, %41
  br i1 %42, label %43, label %116

43:                                               ; preds = %7
  call void @llvm.lifetime.start.p0(i64 8, ptr %26) #3
  store i64 0, ptr %26, align 8, !tbaa !4
  call void @llvm.lifetime.start.p0(i64 8, ptr %27) #3
  %44 = load i64, ptr %24, align 8, !tbaa !4
  store i64 %44, ptr %27, align 8, !tbaa !4
  call void @llvm.lifetime.start.p0(i64 8, ptr %28) #3
  store i64 1, ptr %28, align 8, !tbaa !4
  call void @llvm.lifetime.start.p0(i64 4, ptr %29) #3
  store i32 0, ptr %29, align 4, !tbaa !8
  call void @llvm.lifetime.start.p0(i64 8, ptr %30) #3
  %45 = load ptr, ptr %8, align 8
  %46 = load i32, ptr %45, align 4, !tbaa !8
  call void @__kmpc_for_static_init_8(ptr @1, i32 %46, i32 34, ptr %29, ptr %26, ptr %27, ptr %28, i64 1, i64 1)
  %47 = load i64, ptr %27, align 8, !tbaa !4
  %48 = load i64, ptr %24, align 8, !tbaa !4
  %49 = icmp sgt i64 %47, %48
  br i1 %49, label %50, label %52

50:                                               ; preds = %43
  %51 = load i64, ptr %24, align 8, !tbaa !4
  br label %54

52:                                               ; preds = %43
  %53 = load i64, ptr %27, align 8, !tbaa !4
  br label %54

54:                                               ; preds = %52, %50
  %55 = phi i64 [ %51, %50 ], [ %53, %52 ]
  store i64 %55, ptr %27, align 8, !tbaa !4
  %56 = load i64, ptr %26, align 8, !tbaa !4
  store i64 %56, ptr %22, align 8, !tbaa !4
  br label %57

57:                                               ; preds = %109, %54
  %58 = load i64, ptr %22, align 8, !tbaa !4
  %59 = load i64, ptr %27, align 8, !tbaa !4
  %60 = icmp sle i64 %58, %59
  br i1 %60, label %62, label %61

61:                                               ; preds = %57
  br label %112

62:                                               ; preds = %57
  %63 = load i64, ptr %22, align 8, !tbaa !4
  %64 = mul nsw i64 %63, 1
  %65 = add nsw i64 0, %64
  store i64 %65, ptr %30, align 8, !tbaa !4
  %66 = load i64, ptr %30, align 8, !tbaa !4
  %67 = load i32, ptr %32, align 4, !tbaa !8
  %68 = load i32, ptr %33, align 4, !tbaa !8
  %69 = call i64 @insertTwoZeroBits(i64 noundef %66, i32 noundef %67, i32 noundef %68)
  store i64 %69, ptr %15, align 8, !tbaa !4
  %70 = load i64, ptr %15, align 8, !tbaa !4
  %71 = load i32, ptr %32, align 4, !tbaa !8
  %72 = call i64 @flipBit(i64 noundef %70, i32 noundef %71)
  store i64 %72, ptr %16, align 8, !tbaa !4
  %73 = load i64, ptr %15, align 8, !tbaa !4
  %74 = load i32, ptr %33, align 4, !tbaa !8
  %75 = call i64 @flipBit(i64 noundef %73, i32 noundef %74)
  store i64 %75, ptr %17, align 8, !tbaa !4
  %76 = load ptr, ptr %34, align 8, !tbaa !25
  %77 = load i64, ptr %16, align 8, !tbaa !4
  %78 = getelementptr inbounds double, ptr %76, i64 %77
  %79 = load double, ptr %78, align 8, !tbaa !10
  store double %79, ptr %18, align 8, !tbaa !10
  %80 = load ptr, ptr %35, align 8, !tbaa !25
  %81 = load i64, ptr %16, align 8, !tbaa !4
  %82 = getelementptr inbounds double, ptr %80, i64 %81
  %83 = load double, ptr %82, align 8, !tbaa !10
  store double %83, ptr %20, align 8, !tbaa !10
  %84 = load ptr, ptr %34, align 8, !tbaa !25
  %85 = load i64, ptr %17, align 8, !tbaa !4
  %86 = getelementptr inbounds double, ptr %84, i64 %85
  %87 = load double, ptr %86, align 8, !tbaa !10
  store double %87, ptr %19, align 8, !tbaa !10
  %88 = load ptr, ptr %35, align 8, !tbaa !25
  %89 = load i64, ptr %17, align 8, !tbaa !4
  %90 = getelementptr inbounds double, ptr %88, i64 %89
  %91 = load double, ptr %90, align 8, !tbaa !10
  store double %91, ptr %21, align 8, !tbaa !10
  %92 = load double, ptr %19, align 8, !tbaa !10
  %93 = load ptr, ptr %34, align 8, !tbaa !25
  %94 = load i64, ptr %16, align 8, !tbaa !4
  %95 = getelementptr inbounds double, ptr %93, i64 %94
  store double %92, ptr %95, align 8, !tbaa !10
  %96 = load double, ptr %18, align 8, !tbaa !10
  %97 = load ptr, ptr %34, align 8, !tbaa !25
  %98 = load i64, ptr %17, align 8, !tbaa !4
  %99 = getelementptr inbounds double, ptr %97, i64 %98
  store double %96, ptr %99, align 8, !tbaa !10
  %100 = load double, ptr %21, align 8, !tbaa !10
  %101 = load ptr, ptr %35, align 8, !tbaa !25
  %102 = load i64, ptr %16, align 8, !tbaa !4
  %103 = getelementptr inbounds double, ptr %101, i64 %102
  store double %100, ptr %103, align 8, !tbaa !10
  %104 = load double, ptr %20, align 8, !tbaa !10
  %105 = load ptr, ptr %35, align 8, !tbaa !25
  %106 = load i64, ptr %17, align 8, !tbaa !4
  %107 = getelementptr inbounds double, ptr %105, i64 %106
  store double %104, ptr %107, align 8, !tbaa !10
  br label %108

108:                                              ; preds = %62
  br label %109

109:                                              ; preds = %108
  %110 = load i64, ptr %22, align 8, !tbaa !4
  %111 = add nsw i64 %110, 1
  store i64 %111, ptr %22, align 8, !tbaa !4
  br label %57

112:                                              ; preds = %61
  br label %113

113:                                              ; preds = %112
  %114 = load ptr, ptr %8, align 8
  %115 = load i32, ptr %114, align 4, !tbaa !8
  call void @__kmpc_for_static_fini(ptr @1, i32 %115)
  call void @llvm.lifetime.end.p0(i64 8, ptr %30) #3
  call void @llvm.lifetime.end.p0(i64 4, ptr %29) #3
  call void @llvm.lifetime.end.p0(i64 8, ptr %28) #3
  call void @llvm.lifetime.end.p0(i64 8, ptr %27) #3
  call void @llvm.lifetime.end.p0(i64 8, ptr %26) #3
  br label %116

116:                                              ; preds = %113, %7
  call void @llvm.lifetime.end.p0(i64 8, ptr %24) #3
  call void @llvm.lifetime.end.p0(i64 8, ptr %23) #3
  call void @llvm.lifetime.end.p0(i64 8, ptr %22) #3
  %117 = load ptr, ptr %8, align 8
  %118 = load i32, ptr %117, align 4, !tbaa !8
  call void @__kmpc_barrier(ptr @2, i32 %118)
  call void @llvm.lifetime.end.p0(i64 8, ptr %21) #3
  call void @llvm.lifetime.end.p0(i64 8, ptr %20) #3
  call void @llvm.lifetime.end.p0(i64 8, ptr %19) #3
  call void @llvm.lifetime.end.p0(i64 8, ptr %18) #3
  call void @llvm.lifetime.end.p0(i64 8, ptr %17) #3
  call void @llvm.lifetime.end.p0(i64 8, ptr %16) #3
  call void @llvm.lifetime.end.p0(i64 8, ptr %15) #3
  ret void
}