; Function Attrs: alwaysinline norecurse nounwind uwtable
define internal void @statevec_swapQubitAmpsLocal.omp_outlined(ptr noalias noundef readonly captures(none) %0, ptr noalias readnone captures(none) %1, ptr noundef nonnull readonly align 8 captures(none) dereferenceable(8) %2, ptr noundef nonnull readonly align 4 captures(none) dereferenceable(4) %3, ptr noundef nonnull readonly align 4 captures(none) dereferenceable(4) %4, ptr noundef nonnull readonly align 8 captures(none) dereferenceable(8) %5, ptr noundef nonnull readonly align 8 captures(none) dereferenceable(8) %6) #3 {
  %8 = alloca i64, align 8
  %9 = alloca i64, align 8
  %10 = alloca i64, align 8
  %11 = alloca i32, align 4
  %12 = load i64, ptr %2, align 8, !tbaa !16
  %13 = icmp sgt i64 %12, 0
  %.pre = load i32, ptr %0, align 4, !tbaa !18
  br i1 %13, label %14, label %53

14:                                               ; preds = %7
  %15 = add nsw i64 %12, -1
  call void @llvm.lifetime.start.p0(i64 8, ptr nonnull %8) #4
  store i64 0, ptr %8, align 8, !tbaa !16
  call void @llvm.lifetime.start.p0(i64 8, ptr nonnull %9) #4
  store i64 %15, ptr %9, align 8, !tbaa !16
  call void @llvm.lifetime.start.p0(i64 8, ptr nonnull %10) #4
  store i64 1, ptr %10, align 8, !tbaa !16
  call void @llvm.lifetime.start.p0(i64 4, ptr nonnull %11) #4
  store i32 0, ptr %11, align 4, !tbaa !18
  call void @__kmpc_for_static_init_8(ptr nonnull @1, i32 %.pre, i32 34, ptr nonnull %11, ptr nonnull %8, ptr nonnull %9, ptr nonnull %10, i64 1, i64 1)
  %16 = load i64, ptr %9, align 8, !tbaa !16
  %17 = call i64 @llvm.smin.i64(i64 %16, i64 %15)
  store i64 %17, ptr %9, align 8, !tbaa !16
  %18 = load i64, ptr %8, align 8, !tbaa !16
  %.not30 = icmp sgt i64 %18, %17
  br i1 %.not30, label %._crit_edge, label %.lr.ph

.lr.ph:                                           ; preds = %14
  %19 = load i32, ptr %3, align 4, !tbaa !18
  %20 = load i32, ptr %4, align 4, !tbaa !18
  %21 = call i32 @llvm.smin.i32(i32 %19, i32 %20)
  %22 = call i32 @llvm.smax.i32(i32 %19, i32 %20)
  %23 = zext nneg i32 %21 to i64
  %24 = shl nsw i64 -1, %23
  %25 = zext nneg i32 %22 to i64
  %26 = shl nsw i64 -1, %25
  %27 = zext nneg i32 %19 to i64
  %28 = shl nuw i64 1, %27
  %29 = zext nneg i32 %20 to i64
  %30 = shl nuw i64 1, %29
  %31 = load ptr, ptr %5, align 8, !tbaa !26
  %32 = load ptr, ptr %6, align 8, !tbaa !26
  br label %33

33:                                               ; preds = %.lr.ph, %33
  %.031 = phi i64 [ %18, %.lr.ph ], [ %52, %33 ]
  %34 = and i64 %24, %.031
  %35 = sub nsw i64 %.031, %34
  %36 = shl i64 %34, 1
  %37 = xor i64 %36, %35
  %38 = and i64 %37, %26
  %39 = sub nsw i64 %37, %38
  %40 = shl i64 %38, 1
  %41 = xor i64 %40, %39
  %42 = xor i64 %41, %28
  %43 = xor i64 %41, %30
  %44 = getelementptr inbounds double, ptr %31, i64 %42
  %45 = load double, ptr %44, align 8, !tbaa !4
  %46 = getelementptr inbounds double, ptr %32, i64 %42
  %47 = load double, ptr %46, align 8, !tbaa !4
  %48 = getelementptr inbounds double, ptr %31, i64 %43
  %49 = load double, ptr %48, align 8, !tbaa !4
  %50 = getelementptr inbounds double, ptr %32, i64 %43
  %51 = load double, ptr %50, align 8, !tbaa !4
  store double %49, ptr %44, align 8, !tbaa !4
  store double %45, ptr %48, align 8, !tbaa !4
  store double %51, ptr %46, align 8, !tbaa !4
  store double %47, ptr %50, align 8, !tbaa !4
  %52 = add i64 %.031, 1
  %exitcond.not = icmp eq i64 %.031, %17
  br i1 %exitcond.not, label %._crit_edge, label %33

._crit_edge:                                      ; preds = %33, %14
  call void @__kmpc_for_static_fini(ptr nonnull @1, i32 %.pre)
  call void @llvm.lifetime.end.p0(i64 4, ptr nonnull %11) #4
  call void @llvm.lifetime.end.p0(i64 8, ptr nonnull %10) #4
  call void @llvm.lifetime.end.p0(i64 8, ptr nonnull %9) #4
  call void @llvm.lifetime.end.p0(i64 8, ptr nonnull %8) #4
  br label %53

53:                                               ; preds = %._crit_edge, %7
  call void @__kmpc_barrier(ptr nonnull @2, i32 %.pre)
  ret void
}